target datalayout = "e-m:e-p270:32:32-p271:32:32-p272:64:64-i64:64-i128:128-f80:128-n8:16:32:64-S128"
target triple = "x86_64-pc-linux-gnu"

%struct.Ivy_Man_t_ = type { ptr, ptr, ptr, ptr, ptr, %struct.Ivy_Obj_t_, [8 x i32], i32, i32, ptr, i32, i32, i32, i32, ptr, i32, ptr, ptr, ptr, i32, ptr, ptr, ptr, i64, i64 }
%struct.Ivy_Obj_t_ = type { i32, i32, i32, i32, ptr, ptr, ptr, ptr, ptr, ptr, ptr, ptr }

; Function Attrs: inlinehint nounwind uwtable
define internal ptr @Ivy_Regular(ptr noundef %0) #1 {
  %2 = alloca ptr, align 8
  store ptr %0, ptr %2, align 8, !tbaa !8
  %3 = load ptr, ptr %2, align 8, !tbaa !8
  %4 = ptrtoint ptr %3 to i64
  %5 = and i64 %4, -2
  %6 = inttoptr i64 %5 to ptr
  ret ptr %6
}

; Function Attrs: nounwind uwtable
define ptr @Ivy_And(ptr noundef %0, ptr noundef %1, ptr noundef %2) #0 {
  %4 = alloca ptr, align 8
  %5 = alloca ptr, align 8
  %6 = alloca ptr, align 8
  %7 = alloca ptr, align 8
  store ptr %0, ptr %5, align 8, !tbaa !3
  store ptr %1, ptr %6, align 8, !tbaa !8
  store ptr %2, ptr %7, align 8, !tbaa !8
  %8 = load ptr, ptr %6, align 8, !tbaa !8
  %9 = load ptr, ptr %7, align 8, !tbaa !8
  %10 = icmp eq ptr %8, %9
  br i1 %10, label %11, label %13

11:                                               ; preds = %3
  %12 = load ptr, ptr %6, align 8, !tbaa !8
  store ptr %12, ptr %4, align 8
  br label %72

13:                                               ; preds = %3
  %14 = load ptr, ptr %6, align 8, !tbaa !8
  %15 = load ptr, ptr %7, align 8, !tbaa !8
  %16 = call ptr @Ivy_Not(ptr noundef %15)
  %17 = icmp eq ptr %14, %16
  br i1 %17, label %18, label %23

18:                                               ; preds = %13
  %19 = load ptr, ptr %5, align 8, !tbaa !3
  %20 = getelementptr inbounds nuw %struct.Ivy_Man_t_, ptr %19, i32 0, i32 4
  %21 = load ptr, ptr %20, align 8, !tbaa !12
  %22 = call ptr @Ivy_Not(ptr noundef %21)
  store ptr %22, ptr %4, align 8
  br label %72

23:                                               ; preds = %13
  %24 = load ptr, ptr %6, align 8, !tbaa !8
  %25 = call ptr @Ivy_Regular(ptr noundef %24)
  %26 = load ptr, ptr %5, align 8, !tbaa !3
  %27 = getelementptr inbounds nuw %struct.Ivy_Man_t_, ptr %26, i32 0, i32 4
  %28 = load ptr, ptr %27, align 8, !tbaa !12
  %29 = icmp eq ptr %25, %28
  br i1 %29, label %30, label %45

30:                                               ; preds = %23
  %31 = load ptr, ptr %6, align 8, !tbaa !8
  %32 = load ptr, ptr %5, align 8, !tbaa !3
  %33 = getelementptr inbounds nuw %struct.Ivy_Man_t_, ptr %32, i32 0, i32 4
  %34 = load ptr, ptr %33, align 8, !tbaa !12
  %35 = icmp eq ptr %31, %34
  br i1 %35, label %36, label %38

36:                                               ; preds = %30
  %37 = load ptr, ptr %7, align 8, !tbaa !8
  br label %43

38:                                               ; preds = %30
  %39 = load ptr, ptr %5, align 8, !tbaa !3
  %40 = getelementptr inbounds nuw %struct.Ivy_Man_t_, ptr %39, i32 0, i32 4
  %41 = load ptr, ptr %40, align 8, !tbaa !12
  %42 = call ptr @Ivy_Not(ptr noundef %41)
  br label %43

43:                                               ; preds = %38, %36
  %44 = phi ptr [ %37, %36 ], [ %42, %38 ]
  store ptr %44, ptr %4, align 8
  br label %72

45:                                               ; preds = %23
  %46 = load ptr, ptr %7, align 8, !tbaa !8
  %47 = call ptr @Ivy_Regular(ptr noundef %46)
  %48 = load ptr, ptr %5, align 8, !tbaa !3
  %49 = getelementptr inbounds nuw %struct.Ivy_Man_t_, ptr %48, i32 0, i32 4
  %50 = load ptr, ptr %49, align 8, !tbaa !12
  %51 = icmp eq ptr %47, %50
  br i1 %51, label %52, label %67

52:                                               ; preds = %45
  %53 = load ptr, ptr %7, align 8, !tbaa !8
  %54 = load ptr, ptr %5, align 8, !tbaa !3
  %55 = getelementptr inbounds nuw %struct.Ivy_Man_t_, ptr %54, i32 0, i32 4
  %56 = load ptr, ptr %55, align 8, !tbaa !12
  %57 = icmp eq ptr %53, %56
  br i1 %57, label %58, label %60

58:                                               ; preds = %52
  %59 = load ptr, ptr %6, align 8, !tbaa !8
  br label %65

60:                                               ; preds = %52
  %61 = load ptr, ptr %5, align 8, !tbaa !3
  %62 = getelementptr inbounds nuw %struct.Ivy_Man_t_, ptr %61, i32 0, i32 4
  %63 = load ptr, ptr %62, align 8, !tbaa !12
  %64 = call ptr @Ivy_Not(ptr noundef %63)
  br label %65

65:                                               ; preds = %60, %58
  %66 = phi ptr [ %59, %58 ], [ %64, %60 ]
  store ptr %66, ptr %4, align 8
  br label %72

67:                                               ; preds = %45
  %68 = load ptr, ptr %5, align 8, !tbaa !3
  %69 = load ptr, ptr %6, align 8, !tbaa !8
  %70 = load ptr, ptr %7, align 8, !tbaa !8
  %71 = call ptr @Ivy_CanonAnd(ptr noundef %68, ptr noundef %69, ptr noundef %70)
  store ptr %71, ptr %4, align 8
  br label %72

72:                                               ; preds = %67, %65, %43, %18, %11
  %73 = load ptr, ptr %4, align 8
  ret ptr %73
}

; Function Attrs: inlinehint nounwind uwtable
define internal ptr @Ivy_Not(ptr noundef %0) #1 {
  %2 = alloca ptr, align 8
  store ptr %0, ptr %2, align 8, !tbaa !8
  %3 = load ptr, ptr %2, align 8, !tbaa !8
  %4 = ptrtoint ptr %3 to i64
  %5 = xor i64 %4, 1
  %6 = inttoptr i64 %5 to ptr
  ret ptr %6
}

; Function Attrs: nounwind uwtable
define ptr @Ivy_Or(ptr noundef %0, ptr noundef %1, ptr noundef %2) #0 {
  %4 = alloca ptr, align 8
  %5 = alloca ptr, align 8
  %6 = alloca ptr, align 8
  store ptr %0, ptr %4, align 8, !tbaa !3
  store ptr %1, ptr %5, align 8, !tbaa !8
  store ptr %2, ptr %6, align 8, !tbaa !8
  %7 = load ptr, ptr %4, align 8, !tbaa !3
  %8 = load ptr, ptr %5, align 8, !tbaa !8
  %9 = call ptr @Ivy_Not(ptr noundef %8)
  %10 = load ptr, ptr %6, align 8, !tbaa !8
  %11 = call ptr @Ivy_Not(ptr noundef %10)
  %12 = call ptr @Ivy_And(ptr noundef %7, ptr noundef %9, ptr noundef %11)
  %13 = call ptr @Ivy_Not(ptr noundef %12)
  ret ptr %13
}