; Function Attrs: nounwind uwtable
define ptr @Ivy_Or(ptr noundef %0, ptr noundef %1, ptr noundef %2) local_unnamed_addr #0 {
  %4 = ptrtoint ptr %1 to i64
  %5 = xor i64 %4, 1
  %6 = inttoptr i64 %5 to ptr
  %7 = ptrtoint ptr %2 to i64
  %8 = xor i64 %7, 1
  %9 = inttoptr i64 %8 to ptr
  %10 = icmp eq ptr %1, %2
  br i1 %10, label %Ivy_And.exit, label %11

11:                                               ; preds = %3
  %12 = icmp eq ptr %2, %6
  br i1 %12, label %13, label %18

13:                                               ; preds = %11
  %14 = getelementptr inbounds nuw i8, ptr %0, i64 32
  %15 = load ptr, ptr %14, align 8, !tbaa !3
  %16 = ptrtoint ptr %15 to i64
  %17 = xor i64 %16, 1
  br label %Ivy_And.exit

18:                                               ; preds = %11
  %19 = and i64 %4, -2
  %20 = inttoptr i64 %19 to ptr
  %21 = getelementptr inbounds nuw i8, ptr %0, i64 32
  %22 = load ptr, ptr %21, align 8, !tbaa !3
  %23 = icmp eq ptr %22, %20
  br i1 %23, label %24, label %27

24:                                               ; preds = %18
  %25 = icmp eq i64 %5, %19
  %26 = or i64 %4, 1
  %spec.select = select i1 %25, i64 %8, i64 %26
  br label %Ivy_And.exit

27:                                               ; preds = %18
  %28 = and i64 %7, -2
  %29 = inttoptr i64 %28 to ptr
  %30 = icmp eq ptr %22, %29
  br i1 %30, label %31, label %36

31:                                               ; preds = %27
  %32 = icmp eq ptr %22, %9
  br i1 %32, label %Ivy_And.exit, label %33

33:                                               ; preds = %31
  %34 = ptrtoint ptr %22 to i64
  %35 = xor i64 %34, 1
  br label %Ivy_And.exit

36:                                               ; preds = %27
  %37 = tail call ptr @Ivy_CanonAnd(ptr noundef nonnull %0, ptr noundef %6, ptr noundef %9) #2
  %38 = ptrtoint ptr %37 to i64
  br label %Ivy_And.exit

Ivy_And.exit:                                     ; preds = %24, %3, %13, %31, %33, %36
  %.0.i = phi i64 [ %17, %13 ], [ %38, %36 ], [ %5, %3 ], [ %35, %33 ], [ %5, %31 ], [ %spec.select, %24 ]
  %39 = xor i64 %.0.i, 1
  %40 = inttoptr i64 %39 to ptr
  ret ptr %40
}